target datalayout = "e-m:e-p270:32:32-p271:32:32-p272:64:64-i64:64-i128:128-f80:128-n8:16:32:64-S128"
target triple = "x86_64-pc-linux-gnu"

%struct.CRYPTO_REF_COUNT = type { i32 }
%struct.crypto_ex_data_st = type { ptr, ptr }
%struct.evp_pkey_st = type { i32, i32, ptr, ptr, ptr, %union.legacy_pkey_st, %union.legacy_pkey_st, %struct.CRYPTO_REF_COUNT, ptr, ptr, i32, i8, %struct.crypto_ex_data_st, ptr, ptr, i64, ptr, i64, %struct.anon }
%union.legacy_pkey_st = type { ptr }
%struct.anon = type { i32, i32, i32 }

; Function Attrs: nounwind uwtable
define internal i32 @i2d_dhp(ptr noundef %0, ptr noundef %1, ptr noundef %2) #0 {
  %4 = alloca i32, align 4
  %5 = alloca ptr, align 8
  %6 = alloca ptr, align 8
  %7 = alloca ptr, align 8
  store ptr %0, ptr %5, align 8, !tbaa !32
  store ptr %1, ptr %6, align 8, !tbaa !3
  store ptr %2, ptr %7, align 8, !tbaa !59
  %8 = load ptr, ptr %5, align 8, !tbaa !32
  %9 = getelementptr inbounds nuw %struct.evp_pkey_st, ptr %8, i32 0, i32 2
  %10 = load ptr, ptr %9, align 8, !tbaa !44
  %11 = icmp eq ptr %10, @ossl_dhx_asn1_meth
  br i1 %11, label %12, label %16

12:                                               ; preds = %3
  %13 = load ptr, ptr %6, align 8, !tbaa !3
  %14 = load ptr, ptr %7, align 8, !tbaa !59
  %15 = call i32 @i2d_DHxparams(ptr noundef %13, ptr noundef %14)
  store i32 %15, ptr %4, align 4
  br label %20

16:                                               ; preds = %3
  %17 = load ptr, ptr %6, align 8, !tbaa !3
  %18 = load ptr, ptr %7, align 8, !tbaa !59
  %19 = call i32 @i2d_DHparams(ptr noundef %17, ptr noundef %18)
  store i32 %19, ptr %4, align 4
  br label %20

20:                                               ; preds = %16, %12
  %21 = load i32, ptr %4, align 4
  ret i32 %21
}

; Function Attrs: nounwind uwtable
define internal i32 @dh_param_encode(ptr noundef %0, ptr noundef %1) #0 {
  %3 = alloca ptr, align 8
  %4 = alloca ptr, align 8
  store ptr %0, ptr %3, align 8, !tbaa !32
  store ptr %1, ptr %4, align 8, !tbaa !59
  %5 = load ptr, ptr %3, align 8, !tbaa !32
  %6 = load ptr, ptr %3, align 8, !tbaa !32
  %7 = getelementptr inbounds nuw %struct.evp_pkey_st, ptr %6, i32 0, i32 5
  %8 = load ptr, ptr %7, align 8, !tbaa !53
  %9 = load ptr, ptr %4, align 8, !tbaa !59
  %10 = call i32 @i2d_dhp(ptr noundef %5, ptr noundef %8, ptr noundef %9)
  ret i32 %10
}