; Function Attrs: nounwind uwtable
define internal i32 @dh_param_encode(ptr noundef readonly captures(none) %0, ptr noundef %1) #0 {
  %3 = getelementptr inbounds nuw i8, ptr %0, i64 32
  %4 = load ptr, ptr %3, align 8, !tbaa !42
  %5 = getelementptr i8, ptr %0, i64 8
  %.val = load ptr, ptr %5, align 8, !tbaa !33
  %6 = icmp eq ptr %.val, @ossl_dhx_asn1_meth
  br i1 %6, label %7, label %9

7:                                                ; preds = %2
  %8 = tail call i32 @i2d_DHxparams(ptr noundef %4, ptr noundef %1) #5
  br label %i2d_dhp.exit

9:                                                ; preds = %2
  %10 = tail call i32 @i2d_DHparams(ptr noundef %4, ptr noundef %1) #5
  br label %i2d_dhp.exit

i2d_dhp.exit:                                     ; preds = %7, %9
  %.0.i = phi i32 [ %8, %7 ], [ %10, %9 ]
  ret i32 %.0.i
}